target datalayout = "e-m:e-p270:32:32-p271:32:32-p272:64:64-i64:64-i128:128-f80:128-n8:16:32:64-S128"
target triple = "x86_64-pc-linux-gnu"

%"class.icu_77::Package" = type <{ [64 x i8], [64 x i8], ptr, [1024 x i8], i32, i32, i8, i8, i8, i8, i32, i32, [4 x i8], ptr, i32, i32, [100000 x i8], [100000 x i8], i32, [4 x i8], ptr, ptr, i32, i32, i32, i8, [3 x i8] }>

@stderr = external global ptr, align 8
@.str.35 = private unnamed_addr constant [65 x i8] c"icupkg: Out of memory trying to allocate %lu bytes for %d items\0A\00", align 1

; Function Attrs: mustprogress uwtable
define void @_ZN6icu_777Package15setItemCapacityEi(ptr noundef nonnull align 8 dereferenceable(201237) %0, i32 noundef %1) #0 align 2 {
  %3 = alloca ptr, align 8
  %4 = alloca i32, align 4
  %5 = alloca ptr, align 8
  %6 = alloca ptr, align 8
  store ptr %0, ptr %3, align 8, !tbaa !26
  store i32 %1, ptr %4, align 4, !tbaa !8
  %7 = load ptr, ptr %3, align 8
  %8 = load i32, ptr %4, align 4, !tbaa !8
  %9 = getelementptr inbounds nuw %"class.icu_77::Package", ptr %7, i32 0, i32 11
  %10 = load i32, ptr %9, align 8, !tbaa !38
  %11 = icmp sle i32 %8, %10
  br i1 %11, label %12, label %13

12:                                               ; preds = %2
  br label %54

13:                                               ; preds = %2
  call void @llvm.lifetime.start.p0(i64 8, ptr %5) #13
  %14 = load i32, ptr %4, align 4, !tbaa !8
  %15 = sext i32 %14 to i64
  %16 = mul i64 %15, 24
  %17 = call noalias ptr @uprv_malloc_77(i64 noundef %16) #16
  store ptr %17, ptr %5, align 8, !tbaa !74
  call void @llvm.lifetime.start.p0(i64 8, ptr %6) #13
  %18 = getelementptr inbounds nuw %"class.icu_77::Package", ptr %7, i32 0, i32 13
  %19 = load ptr, ptr %18, align 8, !tbaa !39
  store ptr %19, ptr %6, align 8, !tbaa !74
  %20 = load ptr, ptr %5, align 8, !tbaa !74
  %21 = icmp eq ptr %20, null
  br i1 %21, label %22, label %29

22:                                               ; preds = %13
  %23 = load ptr, ptr @stderr, align 8, !tbaa !54
  %24 = load i32, ptr %4, align 4, !tbaa !8
  %25 = sext i32 %24 to i64
  %26 = mul i64 %25, 24
  %27 = load i32, ptr %4, align 4, !tbaa !8
  %28 = call i32 (ptr, ptr, ...) @fprintf(ptr noundef %23, ptr noundef @.str.35, i64 noundef %26, i32 noundef %27) #13
  call void @exit(i32 noundef 7) #14
  unreachable

29:                                               ; preds = %13
  %30 = getelementptr inbounds nuw %"class.icu_77::Package", ptr %7, i32 0, i32 13
  %31 = load ptr, ptr %30, align 8, !tbaa !39
  %32 = icmp ne ptr %31, null
  br i1 %32, label %33, label %48

33:                                               ; preds = %29
  %34 = getelementptr inbounds nuw %"class.icu_77::Package", ptr %7, i32 0, i32 10
  %35 = load i32, ptr %34, align 4, !tbaa !37
  %36 = icmp sgt i32 %35, 0
  br i1 %36, label %37, label %48

37:                                               ; preds = %33
  br label %38

38:                                               ; preds = %37
  %39 = load ptr, ptr %5, align 8, !tbaa !74
  %40 = getelementptr inbounds nuw %"class.icu_77::Package", ptr %7, i32 0, i32 13
  %41 = load ptr, ptr %40, align 8, !tbaa !39
  %42 = getelementptr inbounds nuw %"class.icu_77::Package", ptr %7, i32 0, i32 10
  %43 = load i32, ptr %42, align 4, !tbaa !37
  %44 = sext i32 %43 to i64
  %45 = mul i64 %44, 24
  call void @llvm.memcpy.p0.p0.i64(ptr align 8 %39, ptr align 8 %41, i64 %45, i1 false)
  br label %46

46:                                               ; preds = %38
  br label %47

47:                                               ; preds = %46
  br label %48

48:                                               ; preds = %47, %33, %29
  %49 = load i32, ptr %4, align 4, !tbaa !8
  %50 = getelementptr inbounds nuw %"class.icu_77::Package", ptr %7, i32 0, i32 11
  store i32 %49, ptr %50, align 8, !tbaa !38
  %51 = load ptr, ptr %5, align 8, !tbaa !74
  %52 = getelementptr inbounds nuw %"class.icu_77::Package", ptr %7, i32 0, i32 13
  store ptr %51, ptr %52, align 8, !tbaa !39
  %53 = load ptr, ptr %6, align 8, !tbaa !74
  call void @uprv_free_77(ptr noundef %53)
  call void @llvm.lifetime.end.p0(i64 8, ptr %6) #13
  call void @llvm.lifetime.end.p0(i64 8, ptr %5) #13
  br label %54

54:                                               ; preds = %48, %12
  ret void
}

; Function Attrs: mustprogress uwtable
define void @_ZN6icu_777Package18ensureItemCapacityEv(ptr noundef nonnull align 8 dereferenceable(201237) %0) #0 align 2 {
  %2 = alloca ptr, align 8
  store ptr %0, ptr %2, align 8, !tbaa !26
  %3 = load ptr, ptr %2, align 8
  %4 = getelementptr inbounds nuw %"class.icu_77::Package", ptr %3, i32 0, i32 10
  %5 = load i32, ptr %4, align 4, !tbaa !37
  %6 = add nsw i32 %5, 1
  %7 = getelementptr inbounds nuw %"class.icu_77::Package", ptr %3, i32 0, i32 11
  %8 = load i32, ptr %7, align 8, !tbaa !38
  %9 = icmp sgt i32 %6, %8
  br i1 %9, label %10, label %14

10:                                               ; preds = %1
  %11 = getelementptr inbounds nuw %"class.icu_77::Package", ptr %3, i32 0, i32 10
  %12 = load i32, ptr %11, align 4, !tbaa !37
  %13 = add nsw i32 %12, 256
  call void @_ZN6icu_777Package15setItemCapacityEi(ptr noundef nonnull align 8 dereferenceable(201237) %3, i32 noundef %13)
  br label %14

14:                                               ; preds = %10, %1
  ret void
}