; Function Attrs: mustprogress uwtable
define void @_ZN6icu_777Package18ensureItemCapacityEv(ptr noundef nonnull align 8 captures(none) dereferenceable(201237) %0) local_unnamed_addr #13 align 2 {
  %2 = getelementptr inbounds nuw i8, ptr %0, i64 1172
  %3 = load i32, ptr %2, align 4, !tbaa !29
  %4 = getelementptr inbounds nuw i8, ptr %0, i64 1176
  %5 = load i32, ptr %4, align 8, !tbaa !44
  %.not = icmp slt i32 %3, %5
  br i1 %.not, label %_ZN6icu_777Package15setItemCapacityEi.exit, label %6

6:                                                ; preds = %1
  %7 = add nsw i32 %3, 256
  %8 = sext i32 %7 to i64
  %9 = mul nsw i64 %8, 24
  %10 = tail call noalias ptr @uprv_malloc_77(i64 noundef %9) #27
  %11 = getelementptr inbounds nuw i8, ptr %0, i64 1184
  %12 = load ptr, ptr %11, align 8, !tbaa !30
  %13 = icmp eq ptr %10, null
  br i1 %13, label %14, label %17

14:                                               ; preds = %6
  %15 = load ptr, ptr @stderr, align 8, !tbaa !36
  %16 = tail call i32 (ptr, ptr, ...) @fprintf(ptr noundef %15, ptr noundef nonnull @.str.35, i64 noundef %9, i32 noundef %7) #25
  tail call void @exit(i32 noundef 7) #26
  unreachable

17:                                               ; preds = %6
  %.not12.i = icmp eq ptr %12, null
  br i1 %.not12.i, label %24, label %18

18:                                               ; preds = %17
  %19 = load i32, ptr %2, align 4, !tbaa !29
  %20 = icmp sgt i32 %19, 0
  br i1 %20, label %21, label %24

21:                                               ; preds = %18
  %22 = zext nneg i32 %19 to i64
  %23 = mul nuw nsw i64 %22, 24
  tail call void @llvm.memcpy.p0.p0.i64(ptr nonnull align 8 %10, ptr nonnull align 8 %12, i64 %23, i1 false)
  br label %24

24:                                               ; preds = %21, %18, %17
  store i32 %7, ptr %4, align 8, !tbaa !44
  store ptr %10, ptr %11, align 8, !tbaa !30
  tail call void @uprv_free_77(ptr noundef %12)
  br label %_ZN6icu_777Package15setItemCapacityEi.exit

_ZN6icu_777Package15setItemCapacityEi.exit:       ; preds = %24, %1
  ret void
}